; Function Attrs: nounwind uwtable
define internal fastcc void @PrintFinalStats(ptr noundef %0) unnamed_addr #0 {
  %2 = alloca i64, align 8
  %3 = alloca i64, align 8
  %4 = alloca i64, align 8
  %5 = alloca i64, align 8
  %6 = alloca i64, align 8
  %7 = alloca i64, align 8
  %8 = alloca i64, align 8
  %9 = alloca i64, align 8
  call void @llvm.lifetime.start.p0(i64 8, ptr nonnull %2) #12
  call void @llvm.lifetime.start.p0(i64 8, ptr nonnull %3) #12
  call void @llvm.lifetime.start.p0(i64 8, ptr nonnull %4) #12
  call void @llvm.lifetime.start.p0(i64 8, ptr nonnull %5) #12
  call void @llvm.lifetime.start.p0(i64 8, ptr nonnull %6) #12
  call void @llvm.lifetime.start.p0(i64 8, ptr nonnull %7) #12
  call void @llvm.lifetime.start.p0(i64 8, ptr nonnull %8) #12
  call void @llvm.lifetime.start.p0(i64 8, ptr nonnull %9) #12
  %10 = call i32 @IDAGetNumSteps(ptr noundef %0, ptr noundef nonnull %2) #12
  %11 = icmp slt i32 %10, 0
  br i1 %11, label %12, label %check_retval.exit

12:                                               ; preds = %1
  %13 = load ptr, ptr @stderr, align 8, !tbaa !4
  %14 = call i32 (ptr, ptr, ...) @fprintf(ptr noundef %13, ptr noundef nonnull @.str.45, ptr noundef nonnull @.str.24, i32 noundef %10) #13
  br label %check_retval.exit

check_retval.exit:                                ; preds = %1, %12
  %15 = call i32 @IDAGetNumNonlinSolvIters(ptr noundef %0, ptr noundef nonnull %5) #12
  %16 = icmp slt i32 %15, 0
  br i1 %16, label %17, label %check_retval.exit10

17:                                               ; preds = %check_retval.exit
  %18 = load ptr, ptr @stderr, align 8, !tbaa !4
  %19 = call i32 (ptr, ptr, ...) @fprintf(ptr noundef %18, ptr noundef nonnull @.str.45, ptr noundef nonnull @.str.29, i32 noundef %15) #13
  br label %check_retval.exit10

check_retval.exit10:                              ; preds = %check_retval.exit, %17
  %20 = call i32 @IDAGetNumResEvals(ptr noundef %0, ptr noundef nonnull %3) #12
  %21 = icmp slt i32 %20, 0
  br i1 %21, label %22, label %check_retval.exit12

22:                                               ; preds = %check_retval.exit10
  %23 = load ptr, ptr @stderr, align 8, !tbaa !4
  %24 = call i32 (ptr, ptr, ...) @fprintf(ptr noundef %23, ptr noundef nonnull @.str.45, ptr noundef nonnull @.str.30, i32 noundef %20) #13
  br label %check_retval.exit12

check_retval.exit12:                              ; preds = %check_retval.exit10, %22
  %25 = call i32 @IDAGetNumErrTestFails(ptr noundef %0, ptr noundef nonnull %8) #12
  %26 = icmp slt i32 %25, 0
  br i1 %26, label %27, label %check_retval.exit14

27:                                               ; preds = %check_retval.exit12
  %28 = load ptr, ptr @stderr, align 8, !tbaa !4
  %29 = call i32 (ptr, ptr, ...) @fprintf(ptr noundef %28, ptr noundef nonnull @.str.45, ptr noundef nonnull @.str.31, i32 noundef %25) #13
  br label %check_retval.exit14

check_retval.exit14:                              ; preds = %check_retval.exit12, %27
  %30 = call i32 @IDAGetNumNonlinSolvConvFails(ptr noundef %0, ptr noundef nonnull %6) #12
  %31 = icmp slt i32 %30, 0
  br i1 %31, label %32, label %check_retval.exit16

32:                                               ; preds = %check_retval.exit14
  %33 = load ptr, ptr @stderr, align 8, !tbaa !4
  %34 = call i32 (ptr, ptr, ...) @fprintf(ptr noundef %33, ptr noundef nonnull @.str.45, ptr noundef nonnull @.str.32, i32 noundef %30) #13
  br label %check_retval.exit16

check_retval.exit16:                              ; preds = %check_retval.exit14, %32
  %35 = call i32 @IDAGetNumStepSolveFails(ptr noundef %0, ptr noundef nonnull %9) #12
  %36 = icmp slt i32 %35, 0
  br i1 %36, label %37, label %check_retval.exit18

37:                                               ; preds = %check_retval.exit16
  %38 = load ptr, ptr @stderr, align 8, !tbaa !4
  %39 = call i32 (ptr, ptr, ...) @fprintf(ptr noundef %38, ptr noundef nonnull @.str.45, ptr noundef nonnull @.str.33, i32 noundef %35) #13
  br label %check_retval.exit18

check_retval.exit18:                              ; preds = %check_retval.exit16, %37
  %40 = call i32 @IDAGetNumJacEvals(ptr noundef %0, ptr noundef nonnull %7) #12
  %41 = icmp slt i32 %40, 0
  br i1 %41, label %42, label %check_retval.exit20

42:                                               ; preds = %check_retval.exit18
  %43 = load ptr, ptr @stderr, align 8, !tbaa !4
  %44 = call i32 (ptr, ptr, ...) @fprintf(ptr noundef %43, ptr noundef nonnull @.str.45, ptr noundef nonnull @.str.34, i32 noundef %40) #13
  br label %check_retval.exit20

check_retval.exit20:                              ; preds = %check_retval.exit18, %42
  %45 = call i32 @IDAGetNumLinResEvals(ptr noundef %0, ptr noundef nonnull %4) #12
  %46 = icmp slt i32 %45, 0
  br i1 %46, label %47, label %check_retval.exit22

47:                                               ; preds = %check_retval.exit20
  %48 = load ptr, ptr @stderr, align 8, !tbaa !4
  %49 = call i32 (ptr, ptr, ...) @fprintf(ptr noundef %48, ptr noundef nonnull @.str.45, ptr noundef nonnull @.str.35, i32 noundef %45) #13
  br label %check_retval.exit22

check_retval.exit22:                              ; preds = %check_retval.exit20, %47
  %puts = call i32 @puts(ptr nonnull dereferenceable(1) @str.5)
  %puts8 = call i32 @puts(ptr nonnull dereferenceable(1) @str.6)
  %50 = load i64, ptr %2, align 8, !tbaa !35
  %51 = call i32 (ptr, ...) @printf(ptr noundef nonnull dereferenceable(1) @.str.37, i64 noundef %50)
  %52 = load i64, ptr %3, align 8, !tbaa !35
  %53 = load i64, ptr %4, align 8, !tbaa !35
  %54 = add nsw i64 %53, %52
  %55 = call i32 (ptr, ...) @printf(ptr noundef nonnull dereferenceable(1) @.str.38, i64 noundef %54)
  %56 = load i64, ptr %7, align 8, !tbaa !35
  %57 = call i32 (ptr, ...) @printf(ptr noundef nonnull dereferenceable(1) @.str.39, i64 noundef %56)
  %58 = load i64, ptr %5, align 8, !tbaa !35
  %59 = call i32 (ptr, ...) @printf(ptr noundef nonnull dereferenceable(1) @.str.40, i64 noundef %58)
  %60 = load i64, ptr %8, align 8, !tbaa !35
  %61 = call i32 (ptr, ...) @printf(ptr noundef nonnull dereferenceable(1) @.str.41, i64 noundef %60)
  %62 = load i64, ptr %6, align 8, !tbaa !35
  %63 = call i32 (ptr, ...) @printf(ptr noundef nonnull dereferenceable(1) @.str.42, i64 noundef %62)
  %64 = load i64, ptr %9, align 8, !tbaa !35
  %65 = call i32 (ptr, ...) @printf(ptr noundef nonnull dereferenceable(1) @.str.43, i64 noundef %64)
  call void @llvm.lifetime.end.p0(i64 8, ptr nonnull %9) #12
  call void @llvm.lifetime.end.p0(i64 8, ptr nonnull %8) #12
  call void @llvm.lifetime.end.p0(i64 8, ptr nonnull %7) #12
  call void @llvm.lifetime.end.p0(i64 8, ptr nonnull %6) #12
  call void @llvm.lifetime.end.p0(i64 8, ptr nonnull %5) #12
  call void @llvm.lifetime.end.p0(i64 8, ptr nonnull %4) #12
  call void @llvm.lifetime.end.p0(i64 8, ptr nonnull %3) #12
  call void @llvm.lifetime.end.p0(i64 8, ptr nonnull %2) #12
  ret void
}